target datalayout = "e-m:e-p270:32:32-p271:32:32-p272:64:64-i64:64-i128:128-f80:128-n8:16:32:64-S128"
target triple = "x86_64-pc-linux-gnu"

%struct.__ncnn_allocator_t = type { ptr, ptr, ptr }
%"class.ncnn::Mat" = type { ptr, ptr, i64, i32, ptr, i32, i32, i32, i32, i32, i64 }

; Function Attrs: mustprogress uwtable
define hidden ptr @ncnn_mat_create_2d(i32 noundef %0, i32 noundef %1, ptr noundef %2) #1 personality ptr @__gxx_personality_v0 {
  %4 = alloca ptr, align 8
  %5 = alloca i32, align 4
  %6 = alloca i32, align 4
  %7 = alloca i64, align 8
  %8 = alloca ptr, align 8
  %9 = alloca i32, align 4
  %10 = alloca i32, align 4
  %11 = alloca ptr, align 8
  %12 = alloca ptr, align 8
  %13 = alloca i32, align 4
  store i32 %0, ptr %9, align 4
  store i32 %1, ptr %10, align 4
  store ptr %2, ptr %11, align 8
  %14 = call noalias noundef nonnull ptr @_Znwm(i64 noundef 72) #13
  %15 = load i32, ptr %9, align 4
  %16 = load i32, ptr %10, align 4
  %17 = load ptr, ptr %11, align 8
  %18 = icmp ne ptr %17, null
  br i1 %18, label %19, label %23

19:                                               ; preds = %3
  %20 = load ptr, ptr %11, align 8
  %21 = getelementptr inbounds nuw %struct.__ncnn_allocator_t, ptr %20, i32 0, i32 0
  %22 = load ptr, ptr %21, align 8
  br label %24

23:                                               ; preds = %3
  br label %24

24:                                               ; preds = %23, %19
  %25 = phi ptr [ %22, %19 ], [ null, %23 ]
  store ptr %14, ptr %4, align 8
  store i32 %15, ptr %5, align 4
  store i32 %16, ptr %6, align 4
  store i64 4, ptr %7, align 8
  store ptr %25, ptr %8, align 8
  %26 = load ptr, ptr %4, align 8
  store ptr null, ptr %26, align 8
  %27 = getelementptr inbounds nuw %"class.ncnn::Mat", ptr %26, i32 0, i32 1
  store ptr null, ptr %27, align 8
  %28 = getelementptr inbounds nuw %"class.ncnn::Mat", ptr %26, i32 0, i32 2
  store i64 0, ptr %28, align 8
  %29 = getelementptr inbounds nuw %"class.ncnn::Mat", ptr %26, i32 0, i32 3
  store i32 0, ptr %29, align 8
  %30 = getelementptr inbounds nuw %"class.ncnn::Mat", ptr %26, i32 0, i32 4
  store ptr null, ptr %30, align 8
  %31 = getelementptr inbounds nuw %"class.ncnn::Mat", ptr %26, i32 0, i32 5
  store i32 0, ptr %31, align 8
  %32 = getelementptr inbounds nuw %"class.ncnn::Mat", ptr %26, i32 0, i32 6
  store i32 0, ptr %32, align 4
  %33 = getelementptr inbounds nuw %"class.ncnn::Mat", ptr %26, i32 0, i32 7
  store i32 0, ptr %33, align 8
  %34 = getelementptr inbounds nuw %"class.ncnn::Mat", ptr %26, i32 0, i32 8
  store i32 0, ptr %34, align 4
  %35 = getelementptr inbounds nuw %"class.ncnn::Mat", ptr %26, i32 0, i32 9
  store i32 0, ptr %35, align 8
  %36 = getelementptr inbounds nuw %"class.ncnn::Mat", ptr %26, i32 0, i32 10
  store i64 0, ptr %36, align 8
  %37 = load i32, ptr %5, align 4
  %38 = load i32, ptr %6, align 4
  %39 = load i64, ptr %7, align 8
  %40 = load ptr, ptr %8, align 8
  invoke void @_ZN4ncnn3Mat6createEiimPNS_9AllocatorE(ptr noundef nonnull align 8 dereferenceable(72) %26, i32 noundef %37, i32 noundef %38, i64 noundef %39, ptr noundef %40)
          to label %41 unwind label %43

41:                                               ; preds = %24
  br label %42

42:                                               ; preds = %41
  ret ptr %14

43:                                               ; preds = %24
  %44 = landingpad { ptr, i32 }
          cleanup
  %45 = extractvalue { ptr, i32 } %44, 0
  store ptr %45, ptr %12, align 8
  %46 = extractvalue { ptr, i32 } %44, 1
  store i32 %46, ptr %13, align 4
  call void @_ZdlPvm(ptr noundef %14, i64 noundef 72) #14
  br label %47

47:                                               ; preds = %43
  %48 = load ptr, ptr %12, align 8
  %49 = load i32, ptr %13, align 4
  %50 = insertvalue { ptr, i32 } poison, ptr %48, 0
  %51 = insertvalue { ptr, i32 } %50, i32 %49, 1
  resume { ptr, i32 } %51
}