; Function Attrs: mustprogress uwtable
define hidden noundef nonnull ptr @ncnn_mat_create_2d(i32 noundef %0, i32 noundef %1, ptr noundef readonly %2) local_unnamed_addr #1 personality ptr @__gxx_personality_v0 {
  %4 = tail call noalias noundef nonnull dereferenceable(72) ptr @_Znwm(i64 noundef 72) #24
  %.not = icmp eq ptr %2, null
  br i1 %.not, label %7, label %5

5:                                                ; preds = %3
  %6 = load ptr, ptr %2, align 8
  br label %7

7:                                                ; preds = %3, %5
  %8 = phi ptr [ %6, %5 ], [ null, %3 ]
  %9 = getelementptr inbounds nuw i8, ptr %4, i64 32
  %10 = getelementptr inbounds nuw i8, ptr %4, i64 64
  store i64 0, ptr %10, align 8
  tail call void @llvm.memset.p0.i64(ptr noundef nonnull align 8 dereferenceable(28) %4, i8 0, i64 28, i1 false)
  tail call void @llvm.memset.p0.i64(ptr noundef nonnull align 8 dereferenceable(28) %9, i8 0, i64 28, i1 false)
  invoke void @_ZN4ncnn3Mat6createEiimPNS_9AllocatorE(ptr noundef nonnull align 8 dereferenceable(72) %4, i32 noundef %0, i32 noundef %1, i64 noundef 4, ptr noundef %8)
          to label %11 unwind label %12

11:                                               ; preds = %7
  ret ptr %4

12:                                               ; preds = %7
  %13 = landingpad { ptr, i32 }
          cleanup
  tail call void @_ZdlPvm(ptr noundef nonnull %4, i64 noundef 72) #25
  resume { ptr, i32 } %13
}